target datalayout = "e-m:e-p270:32:32-p271:32:32-p272:64:64-i64:64-i128:128-f80:128-n8:16:32:64-S128"
target triple = "x86_64-pc-linux-gnu"

%struct.la_zstream = type { ptr, i64, i64, ptr, i64, i64, i32, ptr, i32, ptr, ptr, ptr }
%struct.bz_stream = type { ptr, i32, i32, i32, ptr, i32, i32, i32, ptr, ptr, ptr, ptr }

@.str.34 = private unnamed_addr constant [67 x i8] c"Bzip2 compression failed: BZ2_bzCompress() call returned status %d\00", align 1

; Function Attrs: nounwind uwtable
define internal i32 @compression_code_bzip2(ptr noundef %0, ptr noundef %1, i32 noundef %2) #0 {
  %4 = alloca i32, align 4
  %5 = alloca ptr, align 8
  %6 = alloca ptr, align 8
  %7 = alloca i32, align 4
  %8 = alloca ptr, align 8
  %9 = alloca i32, align 4
  store ptr %0, ptr %5, align 8
  store ptr %1, ptr %6, align 8
  store i32 %2, ptr %7, align 4
  %10 = load ptr, ptr %6, align 8
  %11 = getelementptr inbounds %struct.la_zstream, ptr %10, i32 0, i32 9
  %12 = load ptr, ptr %11, align 8
  store ptr %12, ptr %8, align 8
  %13 = load ptr, ptr %6, align 8
  %14 = getelementptr inbounds %struct.la_zstream, ptr %13, i32 0, i32 0
  %15 = load ptr, ptr %14, align 8
  %16 = ptrtoint ptr %15 to i64
  %17 = inttoptr i64 %16 to ptr
  %18 = load ptr, ptr %8, align 8
  %19 = getelementptr inbounds %struct.bz_stream, ptr %18, i32 0, i32 0
  store ptr %17, ptr %19, align 8
  %20 = load ptr, ptr %6, align 8
  %21 = getelementptr inbounds %struct.la_zstream, ptr %20, i32 0, i32 1
  %22 = load i64, ptr %21, align 8
  %23 = trunc i64 %22 to i32
  %24 = load ptr, ptr %8, align 8
  %25 = getelementptr inbounds %struct.bz_stream, ptr %24, i32 0, i32 1
  store i32 %23, ptr %25, align 8
  %26 = load ptr, ptr %6, align 8
  %27 = getelementptr inbounds %struct.la_zstream, ptr %26, i32 0, i32 2
  %28 = load i64, ptr %27, align 8
  %29 = and i64 %28, 4294967295
  %30 = trunc i64 %29 to i32
  %31 = load ptr, ptr %8, align 8
  %32 = getelementptr inbounds %struct.bz_stream, ptr %31, i32 0, i32 2
  store i32 %30, ptr %32, align 4
  %33 = load ptr, ptr %6, align 8
  %34 = getelementptr inbounds %struct.la_zstream, ptr %33, i32 0, i32 2
  %35 = load i64, ptr %34, align 8
  %36 = lshr i64 %35, 32
  %37 = trunc i64 %36 to i32
  %38 = load ptr, ptr %8, align 8
  %39 = getelementptr inbounds %struct.bz_stream, ptr %38, i32 0, i32 3
  store i32 %37, ptr %39, align 8
  %40 = load ptr, ptr %6, align 8
  %41 = getelementptr inbounds %struct.la_zstream, ptr %40, i32 0, i32 3
  %42 = load ptr, ptr %41, align 8
  %43 = load ptr, ptr %8, align 8
  %44 = getelementptr inbounds %struct.bz_stream, ptr %43, i32 0, i32 4
  store ptr %42, ptr %44, align 8
  %45 = load ptr, ptr %6, align 8
  %46 = getelementptr inbounds %struct.la_zstream, ptr %45, i32 0, i32 4
  %47 = load i64, ptr %46, align 8
  %48 = trunc i64 %47 to i32
  %49 = load ptr, ptr %8, align 8
  %50 = getelementptr inbounds %struct.bz_stream, ptr %49, i32 0, i32 5
  store i32 %48, ptr %50, align 8
  %51 = load ptr, ptr %6, align 8
  %52 = getelementptr inbounds %struct.la_zstream, ptr %51, i32 0, i32 5
  %53 = load i64, ptr %52, align 8
  %54 = and i64 %53, 4294967295
  %55 = trunc i64 %54 to i32
  %56 = load ptr, ptr %8, align 8
  %57 = getelementptr inbounds %struct.bz_stream, ptr %56, i32 0, i32 6
  store i32 %55, ptr %57, align 4
  %58 = load ptr, ptr %6, align 8
  %59 = getelementptr inbounds %struct.la_zstream, ptr %58, i32 0, i32 5
  %60 = load i64, ptr %59, align 8
  %61 = lshr i64 %60, 32
  %62 = trunc i64 %61 to i32
  %63 = load ptr, ptr %8, align 8
  %64 = getelementptr inbounds %struct.bz_stream, ptr %63, i32 0, i32 7
  store i32 %62, ptr %64, align 8
  %65 = load ptr, ptr %8, align 8
  %66 = load i32, ptr %7, align 4
  %67 = icmp eq i32 %66, 0
  %68 = select i1 %67, i32 2, i32 0
  %69 = call i32 @BZ2_bzCompress(ptr noundef %65, i32 noundef %68)
  store i32 %69, ptr %9, align 4
  %70 = load ptr, ptr %8, align 8
  %71 = getelementptr inbounds %struct.bz_stream, ptr %70, i32 0, i32 0
  %72 = load ptr, ptr %71, align 8
  %73 = load ptr, ptr %6, align 8
  %74 = getelementptr inbounds %struct.la_zstream, ptr %73, i32 0, i32 0
  store ptr %72, ptr %74, align 8
  %75 = load ptr, ptr %8, align 8
  %76 = getelementptr inbounds %struct.bz_stream, ptr %75, i32 0, i32 1
  %77 = load i32, ptr %76, align 8
  %78 = zext i32 %77 to i64
  %79 = load ptr, ptr %6, align 8
  %80 = getelementptr inbounds %struct.la_zstream, ptr %79, i32 0, i32 1
  store i64 %78, ptr %80, align 8
  %81 = load ptr, ptr %8, align 8
  %82 = getelementptr inbounds %struct.bz_stream, ptr %81, i32 0, i32 3
  %83 = load i32, ptr %82, align 8
  %84 = zext i32 %83 to i64
  %85 = shl i64 %84, 32
  %86 = load ptr, ptr %8, align 8
  %87 = getelementptr inbounds %struct.bz_stream, ptr %86, i32 0, i32 2
  %88 = load i32, ptr %87, align 4
  %89 = zext i32 %88 to i64
  %90 = add i64 %85, %89
  %91 = load ptr, ptr %6, align 8
  %92 = getelementptr inbounds %struct.la_zstream, ptr %91, i32 0, i32 2
  store i64 %90, ptr %92, align 8
  %93 = load ptr, ptr %8, align 8
  %94 = getelementptr inbounds %struct.bz_stream, ptr %93, i32 0, i32 4
  %95 = load ptr, ptr %94, align 8
  %96 = load ptr, ptr %6, align 8
  %97 = getelementptr inbounds %struct.la_zstream, ptr %96, i32 0, i32 3
  store ptr %95, ptr %97, align 8
  %98 = load ptr, ptr %8, align 8
  %99 = getelementptr inbounds %struct.bz_stream, ptr %98, i32 0, i32 5
  %100 = load i32, ptr %99, align 8
  %101 = zext i32 %100 to i64
  %102 = load ptr, ptr %6, align 8
  %103 = getelementptr inbounds %struct.la_zstream, ptr %102, i32 0, i32 4
  store i64 %101, ptr %103, align 8
  %104 = load ptr, ptr %8, align 8
  %105 = getelementptr inbounds %struct.bz_stream, ptr %104, i32 0, i32 7
  %106 = load i32, ptr %105, align 8
  %107 = zext i32 %106 to i64
  %108 = shl i64 %107, 32
  %109 = load ptr, ptr %8, align 8
  %110 = getelementptr inbounds %struct.bz_stream, ptr %109, i32 0, i32 6
  %111 = load i32, ptr %110, align 4
  %112 = zext i32 %111 to i64
  %113 = add i64 %108, %112
  %114 = load ptr, ptr %6, align 8
  %115 = getelementptr inbounds %struct.la_zstream, ptr %114, i32 0, i32 5
  store i64 %113, ptr %115, align 8
  %116 = load i32, ptr %9, align 4
  switch i32 %116, label %119 [
    i32 1, label %117
    i32 3, label %117
    i32 4, label %118
  ]

117:                                              ; preds = %3, %3
  store i32 0, ptr %4, align 4
  br label %122

118:                                              ; preds = %3
  store i32 1, ptr %4, align 4
  br label %122

119:                                              ; preds = %3
  %120 = load ptr, ptr %5, align 8
  %121 = load i32, ptr %9, align 4
  call void (ptr, i32, ptr, ...) @archive_set_error(ptr noundef %120, i32 noundef -1, ptr noundef @.str.34, i32 noundef %121)
  store i32 -30, ptr %4, align 4
  br label %122

122:                                              ; preds = %119, %118, %117
  %123 = load i32, ptr %4, align 4
  ret i32 %123
}