; Function Attrs: nounwind uwtable
define internal range(i32 -30, 2) i32 @compression_code_bzip2(ptr noundef %0, ptr noundef captures(none) %1, i32 noundef %2) #0 {
  %4 = getelementptr inbounds nuw i8, ptr %1, i64 72
  %5 = load ptr, ptr %4, align 8
  %6 = load ptr, ptr %1, align 8
  store ptr %6, ptr %5, align 8
  %7 = getelementptr inbounds nuw i8, ptr %1, i64 8
  %8 = load i64, ptr %7, align 8
  %9 = trunc i64 %8 to i32
  %10 = getelementptr inbounds nuw i8, ptr %5, i64 8
  store i32 %9, ptr %10, align 8
  %11 = getelementptr inbounds nuw i8, ptr %1, i64 16
  %12 = load i64, ptr %11, align 8
  %13 = trunc i64 %12 to i32
  %14 = getelementptr inbounds nuw i8, ptr %5, i64 12
  store i32 %13, ptr %14, align 4
  %15 = load i64, ptr %11, align 8
  %16 = lshr i64 %15, 32
  %17 = trunc nuw i64 %16 to i32
  %18 = getelementptr inbounds nuw i8, ptr %5, i64 16
  store i32 %17, ptr %18, align 8
  %19 = getelementptr inbounds nuw i8, ptr %1, i64 24
  %20 = load ptr, ptr %19, align 8
  %21 = getelementptr inbounds nuw i8, ptr %5, i64 24
  store ptr %20, ptr %21, align 8
  %22 = getelementptr inbounds nuw i8, ptr %1, i64 32
  %23 = load i64, ptr %22, align 8
  %24 = trunc i64 %23 to i32
  %25 = getelementptr inbounds nuw i8, ptr %5, i64 32
  store i32 %24, ptr %25, align 8
  %26 = getelementptr inbounds nuw i8, ptr %1, i64 40
  %27 = load i64, ptr %26, align 8
  %28 = trunc i64 %27 to i32
  %29 = getelementptr inbounds nuw i8, ptr %5, i64 36
  store i32 %28, ptr %29, align 4
  %30 = load i64, ptr %26, align 8
  %31 = lshr i64 %30, 32
  %32 = trunc nuw i64 %31 to i32
  %33 = getelementptr inbounds nuw i8, ptr %5, i64 40
  store i32 %32, ptr %33, align 8
  %34 = icmp eq i32 %2, 0
  %35 = select i1 %34, i32 2, i32 0
  %36 = tail call i32 @BZ2_bzCompress(ptr noundef nonnull %5, i32 noundef %35) #18
  %37 = load ptr, ptr %5, align 8
  store ptr %37, ptr %1, align 8
  %38 = load i32, ptr %10, align 8
  %39 = zext i32 %38 to i64
  store i64 %39, ptr %7, align 8
  %40 = load i64, ptr %14, align 4
  store i64 %40, ptr %11, align 8
  %41 = load ptr, ptr %21, align 8
  store ptr %41, ptr %19, align 8
  %42 = load i32, ptr %25, align 8
  %43 = zext i32 %42 to i64
  store i64 %43, ptr %22, align 8
  %44 = load i64, ptr %29, align 4
  store i64 %44, ptr %26, align 8
  switch i32 %36, label %46 [
    i32 1, label %47
    i32 3, label %47
    i32 4, label %45
  ]

45:                                               ; preds = %3
  br label %47

46:                                               ; preds = %3
  tail call void (ptr, i32, ptr, ...) @archive_set_error(ptr noundef %0, i32 noundef -1, ptr noundef nonnull @.str.34, i32 noundef %36) #18
  br label %47

47:                                               ; preds = %3, %3, %46, %45
  %.0 = phi i32 [ -30, %46 ], [ 1, %45 ], [ 0, %3 ], [ 0, %3 ]
  ret i32 %.0
}